target datalayout = "e-m:e-p270:32:32-p271:32:32-p272:64:64-i64:64-i128:128-f80:128-n8:16:32:64-S128"
target triple = "x86_64-pc-linux-gnu"

; Function Attrs: nounwind uwtable
define internal void @filter_fltp(ptr noundef %0, ptr noundef %1, i32 noundef %2, i32 noundef %3, float noundef %4) #0 {
  %6 = alloca ptr, align 8
  %7 = alloca ptr, align 8
  %8 = alloca i32, align 4
  %9 = alloca i32, align 4
  %10 = alloca float, align 4
  %11 = alloca i32, align 4
  %12 = alloca i32, align 4
  %13 = alloca ptr, align 8
  %14 = alloca ptr, align 8
  %15 = alloca float, align 4
  store ptr %0, ptr %6, align 8, !tbaa !50
  store ptr %1, ptr %7, align 8, !tbaa !50
  store i32 %2, ptr %8, align 4, !tbaa !51
  store i32 %3, ptr %9, align 4, !tbaa !51
  store float %4, ptr %10, align 4, !tbaa !52
  call void @llvm.lifetime.start.p0(i64 4, ptr %11) #4
  call void @llvm.lifetime.start.p0(i64 4, ptr %12) #4
  store i32 0, ptr %12, align 4, !tbaa !51
  br label %16

16:                                               ; preds = %59, %5
  %17 = load i32, ptr %12, align 4, !tbaa !51
  %18 = load i32, ptr %9, align 4, !tbaa !51
  %19 = icmp slt i32 %17, %18
  br i1 %19, label %20, label %62

20:                                               ; preds = %16
  call void @llvm.lifetime.start.p0(i64 8, ptr %13) #4
  %21 = load ptr, ptr %7, align 8, !tbaa !50
  %22 = load i32, ptr %12, align 4, !tbaa !51
  %23 = sext i32 %22 to i64
  %24 = getelementptr inbounds ptr, ptr %21, i64 %23
  %25 = load ptr, ptr %24, align 8, !tbaa !53
  store ptr %25, ptr %13, align 8, !tbaa !54
  call void @llvm.lifetime.start.p0(i64 8, ptr %14) #4
  %26 = load ptr, ptr %6, align 8, !tbaa !50
  %27 = load i32, ptr %12, align 4, !tbaa !51
  %28 = sext i32 %27 to i64
  %29 = getelementptr inbounds ptr, ptr %26, i64 %28
  %30 = load ptr, ptr %29, align 8, !tbaa !53
  store ptr %30, ptr %14, align 8, !tbaa !54
  store i32 0, ptr %11, align 4, !tbaa !51
  br label %31

31:                                               ; preds = %55, %20
  %32 = load i32, ptr %11, align 4, !tbaa !51
  %33 = load i32, ptr %8, align 4, !tbaa !51
  %34 = icmp slt i32 %32, %33
  br i1 %34, label %35, label %58

35:                                               ; preds = %31
  call void @llvm.lifetime.start.p0(i64 4, ptr %15) #4
  %36 = load ptr, ptr %13, align 8, !tbaa !54
  %37 = load i32, ptr %11, align 4, !tbaa !51
  %38 = sext i32 %37 to i64
  %39 = getelementptr inbounds float, ptr %36, i64 %38
  %40 = load float, ptr %39, align 4, !tbaa !52
  %41 = fpext nsz float %40 to double
  %42 = fmul nsz double %41, 0x3FF921FB54442D18
  %43 = fptrunc nsz double %42 to float
  store float %43, ptr %15, align 4, !tbaa !52
  %44 = load float, ptr %15, align 4, !tbaa !52
  %45 = load float, ptr %10, align 4, !tbaa !52
  %46 = load float, ptr %15, align 4, !tbaa !52
  %47 = fmul nsz float %46, 4.000000e+00
  %48 = call nsz float @llvm.sin.f32(float %47)
  %49 = call nsz float @llvm.fmuladd.f32(float %45, float %48, float %44)
  %50 = call nsz float @llvm.sin.f32(float %49)
  %51 = load ptr, ptr %14, align 8, !tbaa !54
  %52 = load i32, ptr %11, align 4, !tbaa !51
  %53 = sext i32 %52 to i64
  %54 = getelementptr inbounds float, ptr %51, i64 %53
  store float %50, ptr %54, align 4, !tbaa !52
  call void @llvm.lifetime.end.p0(i64 4, ptr %15) #4
  br label %55

55:                                               ; preds = %35
  %56 = load i32, ptr %11, align 4, !tbaa !51
  %57 = add nsw i32 %56, 1
  store i32 %57, ptr %11, align 4, !tbaa !51
  br label %31, !llvm.loop !64

58:                                               ; preds = %31
  call void @llvm.lifetime.end.p0(i64 8, ptr %14) #4
  call void @llvm.lifetime.end.p0(i64 8, ptr %13) #4
  br label %59

59:                                               ; preds = %58
  %60 = load i32, ptr %12, align 4, !tbaa !51
  %61 = add nsw i32 %60, 1
  store i32 %61, ptr %12, align 4, !tbaa !51
  br label %16, !llvm.loop !65

62:                                               ; preds = %16
  call void @llvm.lifetime.end.p0(i64 4, ptr %12) #4
  call void @llvm.lifetime.end.p0(i64 4, ptr %11) #4
  ret void
}