; Function Attrs: nofree norecurse nosync nounwind memory(readwrite, inaccessiblemem: none) uwtable
define internal void @filter_fltp(ptr noundef readonly captures(none) %0, ptr noundef readonly captures(none) %1, i32 noundef %2, i32 noundef %3, float noundef %4) #3 {
  %6 = icmp sgt i32 %3, 0
  %7 = icmp sgt i32 %2, 0
  %or.cond = and i1 %6, %7
  br i1 %or.cond, label %.lr.ph.us.preheader, label %._crit_edge21

.lr.ph.us.preheader:                              ; preds = %5
  %wide.trip.count27 = zext nneg i32 %3 to i64
  %wide.trip.count = zext nneg i32 %2 to i64
  br label %.lr.ph.us

.lr.ph.us:                                        ; preds = %.lr.ph.us.preheader, %._crit_edge.us
  %indvars.iv24 = phi i64 [ 0, %.lr.ph.us.preheader ], [ %indvars.iv.next25, %._crit_edge.us ]
  %8 = getelementptr inbounds nuw ptr, ptr %1, i64 %indvars.iv24
  %9 = load ptr, ptr %8, align 8, !tbaa !47
  %10 = getelementptr inbounds nuw ptr, ptr %0, i64 %indvars.iv24
  %11 = load ptr, ptr %10, align 8, !tbaa !47
  br label %12

12:                                               ; preds = %.lr.ph.us, %12
  %indvars.iv = phi i64 [ 0, %.lr.ph.us ], [ %indvars.iv.next, %12 ]
  %13 = getelementptr inbounds nuw float, ptr %9, i64 %indvars.iv
  %14 = load float, ptr %13, align 4, !tbaa !48
  %15 = fpext nsz float %14 to double
  %16 = fmul nsz double %15, 0x3FF921FB54442D18
  %17 = fptrunc nsz double %16 to float
  %18 = fmul nsz float %17, 4.000000e+00
  %19 = tail call nsz float @llvm.sin.f32(float %18)
  %20 = tail call nsz float @llvm.fmuladd.f32(float %4, float %19, float %17)
  %21 = tail call nsz float @llvm.sin.f32(float %20)
  %22 = getelementptr inbounds nuw float, ptr %11, i64 %indvars.iv
  store float %21, ptr %22, align 4, !tbaa !48
  %indvars.iv.next = add nuw nsw i64 %indvars.iv, 1
  %exitcond.not = icmp eq i64 %indvars.iv.next, %wide.trip.count
  br i1 %exitcond.not, label %._crit_edge.us, label %12, !llvm.loop !56

._crit_edge.us:                                   ; preds = %12
  %indvars.iv.next25 = add nuw nsw i64 %indvars.iv24, 1
  %exitcond28.not = icmp eq i64 %indvars.iv.next25, %wide.trip.count27
  br i1 %exitcond28.not, label %._crit_edge21, label %.lr.ph.us, !llvm.loop !57

._crit_edge21:                                    ; preds = %._crit_edge.us, %5
  ret void
}